; Function Attrs: nounwind uwtable
define ptr @l_Lean_Elab_Term_Quotation_precheck___lambda__4(ptr noundef %0, ptr readnone captures(none) %1, ptr noundef %2, ptr noundef %3, ptr noundef %4, ptr noundef %5, ptr noundef %6, ptr noundef %7, ptr noundef %8, ptr noundef %9) local_unnamed_addr #0 {
  %11 = ptrtoint ptr %0 to i64
  %12 = and i64 %11, 1
  %.not = icmp eq i64 %12, 0
  br i1 %.not, label %13, label %lean_inc.exit

13:                                               ; preds = %10
  %.val.i = load i32, ptr %0, align 4, !tbaa !4
  %14 = icmp sgt i32 %.val.i, 0
  br i1 %14, label %15, label %17, !prof !13

15:                                               ; preds = %13
  %16 = add nuw i32 %.val.i, 1
  store i32 %16, ptr %0, align 4, !tbaa !4
  br label %lean_inc.exit

17:                                               ; preds = %13
  %.not.i48 = icmp eq i32 %.val.i, 0
  br i1 %.not.i48, label %lean_inc.exit, label %18

18:                                               ; preds = %17
  tail call void @lean_inc_ref_cold(ptr noundef nonnull %0) #4
  br label %lean_inc.exit

lean_inc.exit:                                    ; preds = %18, %17, %15, %10
  %19 = tail call zeroext i8 @l_Lean_Syntax_isAnyAntiquot(ptr noundef %0) #4
  %20 = icmp eq i8 %19, 0
  br i1 %20, label %21, label %23

21:                                               ; preds = %lean_inc.exit
  %22 = tail call ptr @l_Lean_Elab_Term_Quotation_precheck___lambda__3(ptr noundef %0, ptr nonnull poison, ptr noundef %2, ptr noundef %3, ptr noundef %4, ptr noundef %5, ptr noundef %6, ptr noundef %7, ptr noundef %8, ptr noundef %9)
  br label %100

23:                                               ; preds = %lean_inc.exit
  %24 = ptrtoint ptr %8 to i64
  %25 = and i64 %24, 1
  %.not49 = icmp eq i64 %25, 0
  br i1 %.not49, label %26, label %lean_dec.exit33

26:                                               ; preds = %23
  %27 = load i32, ptr %8, align 4, !tbaa !4
  %28 = icmp sgt i32 %27, 1
  br i1 %28, label %29, label %31, !prof !13

29:                                               ; preds = %26
  %30 = add nsw i32 %27, -1
  store i32 %30, ptr %8, align 4, !tbaa !4
  br label %lean_dec.exit33

31:                                               ; preds = %26
  %.not.i = icmp eq i32 %27, 0
  br i1 %.not.i, label %lean_dec.exit33, label %32

32:                                               ; preds = %31
  tail call void @lean_dec_ref_cold(ptr noundef nonnull %8) #4
  br label %lean_dec.exit33

lean_dec.exit33:                                  ; preds = %32, %31, %29, %23
  %33 = ptrtoint ptr %7 to i64
  %34 = and i64 %33, 1
  %.not50 = icmp eq i64 %34, 0
  br i1 %.not50, label %35, label %lean_dec.exit32

35:                                               ; preds = %lean_dec.exit33
  %36 = load i32, ptr %7, align 4, !tbaa !4
  %37 = icmp sgt i32 %36, 1
  br i1 %37, label %38, label %40, !prof !13

38:                                               ; preds = %35
  %39 = add nsw i32 %36, -1
  store i32 %39, ptr %7, align 4, !tbaa !4
  br label %lean_dec.exit32

40:                                               ; preds = %35
  %.not.i34 = icmp eq i32 %36, 0
  br i1 %.not.i34, label %lean_dec.exit32, label %41

41:                                               ; preds = %40
  tail call void @lean_dec_ref_cold(ptr noundef nonnull %7) #4
  br label %lean_dec.exit32

lean_dec.exit32:                                  ; preds = %41, %40, %38, %lean_dec.exit33
  %42 = ptrtoint ptr %6 to i64
  %43 = and i64 %42, 1
  %.not51 = icmp eq i64 %43, 0
  br i1 %.not51, label %44, label %lean_dec.exit31

44:                                               ; preds = %lean_dec.exit32
  %45 = load i32, ptr %6, align 4, !tbaa !4
  %46 = icmp sgt i32 %45, 1
  br i1 %46, label %47, label %49, !prof !13

47:                                               ; preds = %44
  %48 = add nsw i32 %45, -1
  store i32 %48, ptr %6, align 4, !tbaa !4
  br label %lean_dec.exit31

49:                                               ; preds = %44
  %.not.i36 = icmp eq i32 %45, 0
  br i1 %.not.i36, label %lean_dec.exit31, label %50

50:                                               ; preds = %49
  tail call void @lean_dec_ref_cold(ptr noundef nonnull %6) #4
  br label %lean_dec.exit31

lean_dec.exit31:                                  ; preds = %50, %49, %47, %lean_dec.exit32
  %51 = ptrtoint ptr %5 to i64
  %52 = and i64 %51, 1
  %.not52 = icmp eq i64 %52, 0
  br i1 %.not52, label %53, label %lean_dec.exit30

53:                                               ; preds = %lean_dec.exit31
  %54 = load i32, ptr %5, align 4, !tbaa !4
  %55 = icmp sgt i32 %54, 1
  br i1 %55, label %56, label %58, !prof !13

56:                                               ; preds = %53
  %57 = add nsw i32 %54, -1
  store i32 %57, ptr %5, align 4, !tbaa !4
  br label %lean_dec.exit30

58:                                               ; preds = %53
  %.not.i38 = icmp eq i32 %54, 0
  br i1 %.not.i38, label %lean_dec.exit30, label %59

59:                                               ; preds = %58
  tail call void @lean_dec_ref_cold(ptr noundef nonnull %5) #4
  br label %lean_dec.exit30

lean_dec.exit30:                                  ; preds = %59, %58, %56, %lean_dec.exit31
  %60 = ptrtoint ptr %4 to i64
  %61 = and i64 %60, 1
  %.not53 = icmp eq i64 %61, 0
  br i1 %.not53, label %62, label %lean_dec.exit29

62:                                               ; preds = %lean_dec.exit30
  %63 = load i32, ptr %4, align 4, !tbaa !4
  %64 = icmp sgt i32 %63, 1
  br i1 %64, label %65, label %67, !prof !13

65:                                               ; preds = %62
  %66 = add nsw i32 %63, -1
  store i32 %66, ptr %4, align 4, !tbaa !4
  br label %lean_dec.exit29

67:                                               ; preds = %62
  %.not.i40 = icmp eq i32 %63, 0
  br i1 %.not.i40, label %lean_dec.exit29, label %68

68:                                               ; preds = %67
  tail call void @lean_dec_ref_cold(ptr noundef nonnull %4) #4
  br label %lean_dec.exit29

lean_dec.exit29:                                  ; preds = %68, %67, %65, %lean_dec.exit30
  %69 = ptrtoint ptr %3 to i64
  %70 = and i64 %69, 1
  %.not54 = icmp eq i64 %70, 0
  br i1 %.not54, label %71, label %lean_dec.exit28

71:                                               ; preds = %lean_dec.exit29
  %72 = load i32, ptr %3, align 4, !tbaa !4
  %73 = icmp sgt i32 %72, 1
  br i1 %73, label %74, label %76, !prof !13

74:                                               ; preds = %71
  %75 = add nsw i32 %72, -1
  store i32 %75, ptr %3, align 4, !tbaa !4
  br label %lean_dec.exit28

76:                                               ; preds = %71
  %.not.i42 = icmp eq i32 %72, 0
  br i1 %.not.i42, label %lean_dec.exit28, label %77

77:                                               ; preds = %76
  tail call void @lean_dec_ref_cold(ptr noundef nonnull %3) #4
  br label %lean_dec.exit28

lean_dec.exit28:                                  ; preds = %77, %76, %74, %lean_dec.exit29
  %78 = ptrtoint ptr %2 to i64
  %79 = and i64 %78, 1
  %.not55 = icmp eq i64 %79, 0
  br i1 %.not55, label %80, label %lean_dec.exit27

80:                                               ; preds = %lean_dec.exit28
  %81 = load i32, ptr %2, align 4, !tbaa !4
  %82 = icmp sgt i32 %81, 1
  br i1 %82, label %83, label %85, !prof !13

83:                                               ; preds = %80
  %84 = add nsw i32 %81, -1
  store i32 %84, ptr %2, align 4, !tbaa !4
  br label %lean_dec.exit27

85:                                               ; preds = %80
  %.not.i44 = icmp eq i32 %81, 0
  br i1 %.not.i44, label %lean_dec.exit27, label %86

86:                                               ; preds = %85
  tail call void @lean_dec_ref_cold(ptr noundef nonnull %2) #4
  br label %lean_dec.exit27

lean_dec.exit27:                                  ; preds = %86, %85, %83, %lean_dec.exit28
  br i1 %.not, label %87, label %lean_dec.exit

87:                                               ; preds = %lean_dec.exit27
  %88 = load i32, ptr %0, align 4, !tbaa !4
  %89 = icmp sgt i32 %88, 1
  br i1 %89, label %90, label %92, !prof !13

90:                                               ; preds = %87
  %91 = add nsw i32 %88, -1
  store i32 %91, ptr %0, align 4, !tbaa !4
  br label %lean_dec.exit

92:                                               ; preds = %87
  %.not.i46 = icmp eq i32 %88, 0
  br i1 %.not.i46, label %lean_dec.exit, label %93

93:                                               ; preds = %92
  tail call void @lean_dec_ref_cold(ptr noundef nonnull %0) #4
  br label %lean_dec.exit

lean_dec.exit:                                    ; preds = %93, %92, %90, %lean_dec.exit27
  tail call void @lean_inc_heartbeat() #4
  %94 = tail call noalias ptr @mi_malloc_small(i64 noundef 24) #4
  %95 = icmp eq ptr %94, null
  br i1 %95, label %96, label %lean_alloc_ctor.exit

96:                                               ; preds = %lean_dec.exit
  tail call void @lean_internal_panic_out_of_memory() #5
  unreachable

lean_alloc_ctor.exit:                             ; preds = %lean_dec.exit
  %97 = getelementptr inbounds nuw i8, ptr %94, i64 4
  store i32 1, ptr %94, align 4, !tbaa !4
  store i32 131096, ptr %97, align 4
  %98 = getelementptr inbounds nuw i8, ptr %94, i64 8
  store ptr inttoptr (i64 1 to ptr), ptr %98, align 8, !tbaa !9
  %99 = getelementptr inbounds nuw i8, ptr %94, i64 16
  store ptr %9, ptr %99, align 8, !tbaa !9
  br label %100

100:                                              ; preds = %lean_alloc_ctor.exit, %21
  %.0 = phi ptr [ %22, %21 ], [ %94, %lean_alloc_ctor.exit ]
  ret ptr %.0
}